; Function Attrs: mustprogress nounwind uwtable
define hidden void @_ZN11JvmtiTagMap26remove_dead_entries_lockedEP13GrowableArrayIlE(ptr nocapture noundef nonnull align 8 dereferenceable(122) %0, ptr noundef %1) local_unnamed_addr #0 align 2 {
  %3 = getelementptr inbounds i8, ptr %0, i64 120
  %4 = load i8, ptr %3, align 8
  %5 = trunc i8 %4 to i1
  br i1 %5, label %6, label %17

6:                                                ; preds = %2
  %7 = load ptr, ptr %0, align 8
  %8 = getelementptr inbounds i8, ptr %7, i64 400
  %9 = load i64, ptr %8, align 8
  %10 = and i64 %9, 68719476736
  %.not3 = icmp eq i64 %10, 0
  %spec.select = select i1 %.not3, ptr null, ptr %1
  %11 = load volatile ptr, ptr getelementptr inbounds (i8, ptr @_ZN16LogTagSetMappingILN6LogTag4typeE69ELS1_157ELS1_0ELS1_0ELS1_0ELS1_0EE7_tagsetE, i64 64), align 8
  %.not4 = icmp eq ptr %11, null
  br i1 %.not4, label %14, label %12

12:                                               ; preds = %6
  %.not = icmp eq ptr %spec.select, null
  %13 = select i1 %.not, ptr @.str.7, ptr @.str.6
  tail call void (ptr, ...) @_ZN7LogImplILN6LogTag4typeE69ELS1_157ELS1_0ELS1_0ELS1_0ELS1_0EE5writeILN8LogLevel4typeE3EEEvPKcz(ptr noundef nonnull @.str.5, ptr noundef nonnull %13)
  br label %14

14:                                               ; preds = %6, %12
  %15 = getelementptr inbounds i8, ptr %0, i64 112
  %16 = load ptr, ptr %15, align 8
  tail call void @_ZN16JvmtiTagMapTable19remove_dead_entriesEP13GrowableArrayIlE(ptr noundef nonnull align 8 dereferenceable(24) %16, ptr noundef %spec.select) #14
  store i8 0, ptr %3, align 8
  br label %17

17:                                               ; preds = %14, %2
  ret void
}